target datalayout = "e-m:e-p270:32:32-p271:32:32-p272:64:64-i64:64-i128:128-f80:128-n8:16:32:64-S128"
target triple = "x86_64-unknown-linux-gnu"

%"class.QuantLib::Date" = type { i64 }
%"class.boost::detail::shared_count" = type { ptr }
%"class.boost::optional.13" = type { %"class.boost::optional_detail::tc_optional_base.14" }
%"class.boost::optional_detail::tc_optional_base.14" = type { i8, i8 }
%"class.QuantLib::Schedule" = type { %"class.boost::optional", %"class.QuantLib::Calendar", i32, %"class.boost::optional.10", %"class.boost::optional.11", %"class.boost::optional.13", %"class.QuantLib::Date", %"class.QuantLib::Date", %"class.std::vector.15", %"class.std::vector" }
%"class.boost::optional" = type { %"class.boost::optional_detail::optional_base" }
%"class.boost::optional_detail::optional_base" = type { i8, [3 x i8], %"class.boost::optional_detail::aligned_storage" }
%"class.boost::optional_detail::aligned_storage" = type { %"union.boost::optional_detail::aligned_storage<QuantLib::Period>::dummy_u" }
%"union.boost::optional_detail::aligned_storage<QuantLib::Period>::dummy_u" = type { [8 x i8] }
%"class.QuantLib::Calendar" = type { %"class.boost::shared_ptr.6" }
%"class.boost::shared_ptr.6" = type { ptr, %"class.boost::detail::shared_count" }
%"class.boost::optional.10" = type { %"class.boost::optional_detail::tc_optional_base" }
%"class.boost::optional_detail::tc_optional_base" = type { i8, i32 }
%"class.boost::optional.11" = type { %"class.boost::optional_detail::tc_optional_base.12" }
%"class.boost::optional_detail::tc_optional_base.12" = type { i8, i32 }
%"class.std::vector.15" = type { %"struct.std::_Vector_base" }
%"struct.std::_Vector_base" = type { %"struct.std::_Vector_base<QuantLib::Date, std::allocator<QuantLib::Date>>::_Vector_impl" }
%"struct.std::_Vector_base<QuantLib::Date, std::allocator<QuantLib::Date>>::_Vector_impl" = type { %"struct.std::_Vector_base<QuantLib::Date, std::allocator<QuantLib::Date>>::_Vector_impl_data" }
%"struct.std::_Vector_base<QuantLib::Date, std::allocator<QuantLib::Date>>::_Vector_impl_data" = type { ptr, ptr, ptr }
%"class.std::vector" = type { %"struct.std::_Bvector_base" }
%"struct.std::_Bvector_base" = type { %"struct.std::_Bvector_base<std::allocator<bool>>::_Bvector_impl" }
%"struct.std::_Bvector_base<std::allocator<bool>>::_Bvector_impl" = type { %"struct.std::_Bvector_base<std::allocator<bool>>::_Bvector_impl_data" }
%"struct.std::_Bvector_base<std::allocator<bool>>::_Bvector_impl_data" = type { %"struct.std::_Bit_iterator", %"struct.std::_Bit_iterator", ptr }
%"struct.std::_Bit_iterator" = type { %"struct.std::_Bit_iterator_base.base", [4 x i8] }
%"struct.std::_Bit_iterator_base.base" = type <{ ptr, i32 }>
%"class.__gnu_cxx::__normal_iterator.23" = type { ptr }

; Function Attrs: mustprogress nounwind uwtable
define linkonce_odr noundef nonnull align 8 dereferenceable(8) ptr @_ZNK9__gnu_cxx17__normal_iteratorIPKN8QuantLib4DateESt6vectorIS2_SaIS2_EEE4baseEv(ptr noundef nonnull align 8 dereferenceable(8) %this) #1 comdat align 2 {
entry:
  %this.addr = alloca ptr, align 8
  store ptr %this, ptr %this.addr, align 8, !tbaa !3
  %this1 = load ptr, ptr %this.addr, align 8
  %_M_current = getelementptr inbounds nuw %"class.__gnu_cxx::__normal_iterator.23", ptr %this1, i32 0, i32 0
  ret ptr %_M_current
}

; Function Attrs: mustprogress nounwind uwtable
define linkonce_odr void @_ZN9__gnu_cxx17__normal_iteratorIPKN8QuantLib4DateESt6vectorIS2_SaIS2_EEEC2ERKS4_(ptr noundef nonnull align 8 dereferenceable(8) %this, ptr noundef nonnull align 8 dereferenceable(8) %__i) unnamed_addr #1 comdat align 2 {
entry:
  %this.addr = alloca ptr, align 8
  %__i.addr = alloca ptr, align 8
  store ptr %this, ptr %this.addr, align 8, !tbaa !3
  store ptr %__i, ptr %__i.addr, align 8, !tbaa !3
  %this1 = load ptr, ptr %this.addr, align 8
  %_M_current = getelementptr inbounds nuw %"class.__gnu_cxx::__normal_iterator.23", ptr %this1, i32 0, i32 0
  %0 = load ptr, ptr %__i.addr, align 8, !tbaa !3
  %1 = load ptr, ptr %0, align 8, !tbaa !3
  store ptr %1, ptr %_M_current, align 8, !tbaa !72
  ret void
}

; Function Attrs: mustprogress nounwind uwtable
define linkonce_odr noundef nonnull align 8 dereferenceable(8) ptr @_ZNK9__gnu_cxx17__normal_iteratorIPKN8QuantLib4DateESt6vectorIS2_SaIS2_EEEdeEv(ptr noundef nonnull align 8 dereferenceable(8) %this) #1 comdat align 2 {
entry:
  %this.addr = alloca ptr, align 8
  store ptr %this, ptr %this.addr, align 8, !tbaa !3
  %this1 = load ptr, ptr %this.addr, align 8
  %_M_current = getelementptr inbounds nuw %"class.__gnu_cxx::__normal_iterator.23", ptr %this1, i32 0, i32 0
  %0 = load ptr, ptr %_M_current, align 8, !tbaa !72
  ret ptr %0
}

; Function Attrs: inlinehint mustprogress nounwind uwtable
define linkonce_odr noundef zeroext i1 @_ZN9__gnu_cxxneIPKN8QuantLib4DateESt6vectorIS2_SaIS2_EEEEbRKNS_17__normal_iteratorIT_T0_EESD_(ptr noundef nonnull align 8 dereferenceable(8) %__lhs, ptr noundef nonnull align 8 dereferenceable(8) %__rhs) #6 comdat {
entry:
  %__lhs.addr = alloca ptr, align 8
  %__rhs.addr = alloca ptr, align 8
  store ptr %__lhs, ptr %__lhs.addr, align 8, !tbaa !3
  store ptr %__rhs, ptr %__rhs.addr, align 8, !tbaa !3
  %0 = load ptr, ptr %__lhs.addr, align 8, !tbaa !3
  %call = call noundef nonnull align 8 dereferenceable(8) ptr @_ZNK9__gnu_cxx17__normal_iteratorIPKN8QuantLib4DateESt6vectorIS2_SaIS2_EEE4baseEv(ptr noundef nonnull align 8 dereferenceable(8) %0) #11
  %1 = load ptr, ptr %call, align 8, !tbaa !3
  %2 = load ptr, ptr %__rhs.addr, align 8, !tbaa !3
  %call1 = call noundef nonnull align 8 dereferenceable(8) ptr @_ZNK9__gnu_cxx17__normal_iteratorIPKN8QuantLib4DateESt6vectorIS2_SaIS2_EEE4baseEv(ptr noundef nonnull align 8 dereferenceable(8) %2) #11
  %3 = load ptr, ptr %call1, align 8, !tbaa !3
  %cmp = icmp ne ptr %1, %3
  ret i1 %cmp
}

; Function Attrs: mustprogress nounwind uwtable
define linkonce_odr ptr @_ZNKSt6vectorIN8QuantLib4DateESaIS1_EE3endEv(ptr noundef nonnull align 8 dereferenceable(24) %this) #1 comdat align 2 {
entry:
  %retval = alloca %"class.__gnu_cxx::__normal_iterator.23", align 8
  %this.addr = alloca ptr, align 8
  store ptr %this, ptr %this.addr, align 8, !tbaa !3
  %this1 = load ptr, ptr %this.addr, align 8
  %_M_impl = getelementptr inbounds nuw %"struct.std::_Vector_base", ptr %this1, i32 0, i32 0
  %_M_finish = getelementptr inbounds nuw %"struct.std::_Vector_base<QuantLib::Date, std::allocator<QuantLib::Date>>::_Vector_impl_data", ptr %_M_impl, i32 0, i32 1
  call void @_ZN9__gnu_cxx17__normal_iteratorIPKN8QuantLib4DateESt6vectorIS2_SaIS2_EEEC2ERKS4_(ptr noundef nonnull align 8 dereferenceable(8) %retval, ptr noundef nonnull align 8 dereferenceable(8) %_M_finish) #11
  %coerce.dive = getelementptr inbounds nuw %"class.__gnu_cxx::__normal_iterator.23", ptr %retval, i32 0, i32 0
  %0 = load ptr, ptr %coerce.dive, align 8
  ret ptr %0
}

; Function Attrs: mustprogress uwtable
define i64 @_ZNK8QuantLib8Schedule8nextDateERKNS_4DateE(ptr noundef nonnull align 8 dereferenceable(136) %this, ptr noundef nonnull align 8 dereferenceable(8) %refDate) #5 align 2 {
entry:
  %retval = alloca %"class.QuantLib::Date", align 8
  %this.addr = alloca ptr, align 8
  %refDate.addr = alloca ptr, align 8
  %res = alloca %"class.__gnu_cxx::__normal_iterator.23", align 8
  %ref.tmp = alloca %"class.__gnu_cxx::__normal_iterator.23", align 8
  %cleanup.dest.slot = alloca i32, align 4
  store ptr %this, ptr %this.addr, align 8, !tbaa !3
  store ptr %refDate, ptr %refDate.addr, align 8, !tbaa !3
  %this1 = load ptr, ptr %this.addr, align 8
  call void @llvm.lifetime.start.p0(i64 8, ptr %res) #11
  %0 = load ptr, ptr %refDate.addr, align 8, !tbaa !3
  %call = call ptr @_ZNK8QuantLib8Schedule11lower_boundERKNS_4DateE(ptr noundef nonnull align 8 dereferenceable(136) %this1, ptr noundef nonnull align 8 dereferenceable(8) %0)
  %coerce.dive = getelementptr inbounds nuw %"class.__gnu_cxx::__normal_iterator.23", ptr %res, i32 0, i32 0
  store ptr %call, ptr %coerce.dive, align 8
  call void @llvm.lifetime.start.p0(i64 8, ptr %ref.tmp) #11
  %dates_ = getelementptr inbounds nuw %"class.QuantLib::Schedule", ptr %this1, i32 0, i32 8
  %call2 = call ptr @_ZNKSt6vectorIN8QuantLib4DateESaIS1_EE3endEv(ptr noundef nonnull align 8 dereferenceable(24) %dates_) #11
  %coerce.dive3 = getelementptr inbounds nuw %"class.__gnu_cxx::__normal_iterator.23", ptr %ref.tmp, i32 0, i32 0
  store ptr %call2, ptr %coerce.dive3, align 8
  %call4 = call noundef zeroext i1 @_ZN9__gnu_cxxneIPKN8QuantLib4DateESt6vectorIS2_SaIS2_EEEEbRKNS_17__normal_iteratorIT_T0_EESD_(ptr noundef nonnull align 8 dereferenceable(8) %res, ptr noundef nonnull align 8 dereferenceable(8) %ref.tmp) #11
  call void @llvm.lifetime.end.p0(i64 8, ptr %ref.tmp) #11
  br i1 %call4, label %if.then, label %if.else

if.then:                                          ; preds = %entry
  %call5 = call noundef nonnull align 8 dereferenceable(8) ptr @_ZNK9__gnu_cxx17__normal_iteratorIPKN8QuantLib4DateESt6vectorIS2_SaIS2_EEEdeEv(ptr noundef nonnull align 8 dereferenceable(8) %res) #11
  call void @llvm.memcpy.p0.p0.i64(ptr align 8 %retval, ptr align 8 %call5, i64 8, i1 false), !tbaa.struct !47
  store i32 1, ptr %cleanup.dest.slot, align 4
  br label %cleanup

if.else:                                          ; preds = %entry
  call void @_ZN8QuantLib4DateC1Ev(ptr noundef nonnull align 8 dereferenceable(8) %retval)
  store i32 1, ptr %cleanup.dest.slot, align 4
  br label %cleanup

cleanup:                                          ; preds = %if.else, %if.then
  call void @llvm.lifetime.end.p0(i64 8, ptr %res) #11
  %coerce.dive6 = getelementptr inbounds nuw %"class.QuantLib::Date", ptr %retval, i32 0, i32 0
  %1 = load i64, ptr %coerce.dive6, align 8
  ret i64 %1
}