; Function Attrs: mustprogress uwtable
define i64 @_ZNK8QuantLib8Schedule8nextDateERKNS_4DateE(ptr nocapture noundef nonnull readonly align 8 dereferenceable(136) %this, ptr nocapture noundef nonnull readonly align 8 dereferenceable(8) %refDate) local_unnamed_addr #4 align 2 {
entry:
  %retval = alloca %"class.QuantLib::Date", align 8
  %call = tail call ptr @_ZNK8QuantLib8Schedule11lower_boundERKNS_4DateE(ptr noundef nonnull align 8 dereferenceable(136) %this, ptr noundef nonnull align 8 dereferenceable(8) %refDate)
  %_M_finish.i = getelementptr inbounds nuw i8, ptr %this, i64 80
  %0 = load ptr, ptr %_M_finish.i, align 8, !tbaa !46
  %cmp.i.not = icmp eq ptr %call, %0
  br i1 %cmp.i.not, label %if.else, label %cleanup

if.else:                                          ; preds = %entry
  call void @_ZN8QuantLib4DateC1Ev(ptr noundef nonnull align 8 dereferenceable(8) %retval)
  br label %cleanup

cleanup:                                          ; preds = %entry, %if.else
  %retval.sink = phi ptr [ %retval, %if.else ], [ %call, %entry ]
  %.pre = load i64, ptr %retval.sink, align 8
  ret i64 %.pre
}